target datalayout = "e-m:e-p270:32:32-p271:32:32-p272:64:64-i64:64-i128:128-f80:128-n8:16:32:64-S128"
target triple = "x86_64-pc-linux-gnu"

; Function Attrs: nounwind uwtable
define internal i64 @file_read_callback(ptr noundef %0, i32 noundef %1, ptr noundef %2, i64 noundef %3, ptr noundef %4, ptr noundef %5, ptr noundef %6) #0 {
  %8 = alloca i64, align 8
  %9 = alloca ptr, align 8
  %10 = alloca i32, align 4
  %11 = alloca ptr, align 8
  %12 = alloca i64, align 8
  %13 = alloca ptr, align 8
  %14 = alloca ptr, align 8
  %15 = alloca ptr, align 8
  %16 = alloca i32, align 4
  %17 = alloca i64, align 8
  %18 = alloca i32, align 4
  store ptr %0, ptr %9, align 8, !tbaa !70
  store i32 %1, ptr %10, align 4, !tbaa !4
  store ptr %2, ptr %11, align 8, !tbaa !15
  store i64 %3, ptr %12, align 8, !tbaa !60
  store ptr %4, ptr %13, align 8, !tbaa !76
  store ptr %5, ptr %14, align 8, !tbaa !42
  store ptr %6, ptr %15, align 8, !tbaa !42
  call void @llvm.lifetime.start.p0(i64 4, ptr %16) #11
  %19 = load ptr, ptr %14, align 8, !tbaa !42
  %20 = load i32, ptr %19, align 8, !tbaa !14
  store i32 %20, ptr %16, align 4, !tbaa !4
  call void @llvm.lifetime.start.p0(i64 8, ptr %17) #11
  br label %21

21:                                               ; preds = %33, %7
  %22 = load i32, ptr %16, align 4, !tbaa !4
  %23 = load ptr, ptr %11, align 8, !tbaa !15
  %24 = load i64, ptr %12, align 8, !tbaa !60
  %25 = call i64 @read(i32 noundef %22, ptr noundef %23, i64 noundef %24)
  store i64 %25, ptr %17, align 8, !tbaa !60
  %26 = icmp eq i64 %25, -1
  br i1 %26, label %27, label %31

27:                                               ; preds = %21
  %28 = call ptr @__errno_location() #16
  %29 = load i32, ptr %28, align 4, !tbaa !4
  %30 = icmp eq i32 %29, 4
  br label %31

31:                                               ; preds = %27, %21
  %32 = phi i1 [ false, %21 ], [ %30, %27 ]
  br i1 %32, label %33, label %34

33:                                               ; preds = %31
  br label %21, !llvm.loop !78

34:                                               ; preds = %31
  %35 = load i64, ptr %17, align 8, !tbaa !60
  %36 = icmp eq i64 %35, -1
  br i1 %36, label %37, label %38

37:                                               ; preds = %34
  store i64 -521, ptr %8, align 8
  store i32 1, ptr %18, align 4
  br label %47

38:                                               ; preds = %34
  %39 = load i64, ptr %17, align 8, !tbaa !60
  %40 = icmp eq i64 %39, 0
  br i1 %40, label %41, label %45

41:                                               ; preds = %38
  %42 = load ptr, ptr %13, align 8, !tbaa !76
  %43 = load i32, ptr %42, align 4, !tbaa !4
  %44 = or i32 %43, 1
  store i32 %44, ptr %42, align 4, !tbaa !4
  br label %45

45:                                               ; preds = %41, %38
  %46 = load i64, ptr %17, align 8, !tbaa !60
  store i64 %46, ptr %8, align 8
  store i32 1, ptr %18, align 4
  br label %47

47:                                               ; preds = %45, %37
  call void @llvm.lifetime.end.p0(i64 8, ptr %17) #11
  call void @llvm.lifetime.end.p0(i64 4, ptr %16) #11
  %48 = load i64, ptr %8, align 8
  ret i64 %48
}