; Function Attrs: nofree nounwind uwtable
define internal range(i64 0, -1) i64 @file_read_callback(ptr readnone captures(none) %0, i32 %1, ptr noundef captures(none) %2, i64 noundef %3, ptr noundef captures(none) %4, ptr noundef readonly captures(none) %5, ptr readnone captures(none) %6) #16 {
  %8 = load i32, ptr %5, align 8, !tbaa !9
  br label %9

9:                                                ; preds = %11, %7
  %10 = tail call i64 @read(i32 noundef %8, ptr noundef %2, i64 noundef %3) #21
  switch i64 %10, label %.critedge [
    i64 -1, label %11
    i64 0, label %15
  ]

11:                                               ; preds = %9
  %12 = tail call ptr @__errno_location() #28
  %13 = load i32, ptr %12, align 4, !tbaa !28
  %14 = icmp eq i32 %13, 4
  br i1 %14, label %9, label %.critedge, !llvm.loop !57

15:                                               ; preds = %9
  %16 = load i32, ptr %4, align 4, !tbaa !28
  %17 = or i32 %16, 1
  store i32 %17, ptr %4, align 4, !tbaa !28
  br label %.critedge

.critedge:                                        ; preds = %9, %11, %15
  %.0 = phi i64 [ 0, %15 ], [ %10, %9 ], [ -521, %11 ]
  ret i64 %.0
}